; Function Attrs: nounwind uwtable
define hidden noundef nonnull ptr @SHA1(ptr noundef %0, i64 noundef %1, ptr noundef writeonly captures(address_is_null, ret: address, provenance) %2) local_unnamed_addr #2 {
  %4 = alloca %struct.sha_state_st, align 4
  call void @llvm.lifetime.start.p0(i64 96, ptr nonnull %4) #6
  %5 = getelementptr inbounds nuw i8, ptr %4, i64 20
  call void @llvm.memset.p0.i64(ptr noundef nonnull align 4 dereferenceable(96) %5, i8 0, i64 76, i1 false)
  store i32 1732584193, ptr %4, align 4, !tbaa !6
  %6 = getelementptr inbounds nuw i8, ptr %4, i64 4
  store i32 -271733879, ptr %6, align 4, !tbaa !6
  %7 = getelementptr inbounds nuw i8, ptr %4, i64 8
  store i32 -1732584194, ptr %7, align 4, !tbaa !6
  %8 = getelementptr inbounds nuw i8, ptr %4, i64 12
  store i32 271733878, ptr %8, align 4, !tbaa !6
  %9 = getelementptr inbounds nuw i8, ptr %4, i64 16
  store i32 -1009589776, ptr %9, align 4, !tbaa !6
  %10 = icmp eq i64 %1, 0
  br i1 %10, label %SHA1_Update.exit, label %11

11:                                               ; preds = %3
  %12 = trunc i64 %1 to i32
  %13 = shl i32 %12, 3
  %14 = getelementptr inbounds nuw i8, ptr %4, i64 24
  %15 = lshr i64 %1, 29
  %16 = trunc i64 %15 to i32
  store i32 %16, ptr %14, align 4, !tbaa !9
  store i32 %13, ptr %5, align 4, !tbaa !12
  %17 = getelementptr inbounds nuw i8, ptr %4, i64 92
  %.not57.i = icmp ult i64 %1, 64
  br i1 %.not57.i, label %.thread, label %18

18:                                               ; preds = %11
  %19 = lshr i64 %1, 6
  call void @sha1_block_data_order(ptr noundef nonnull %4, ptr noundef %0, i64 noundef %19) #6
  %20 = and i64 %1, -64
  %21 = getelementptr inbounds nuw i8, ptr %0, i64 %20
  %22 = and i64 %1, 63
  %.not58.i = icmp eq i64 %22, 0
  br i1 %.not58.i, label %SHA1_Update.exit, label %.thread

.thread:                                          ; preds = %11, %18
  %.152.i9 = phi ptr [ %21, %18 ], [ %0, %11 ]
  %.154.i8 = phi i64 [ %22, %18 ], [ %1, %11 ]
  %23 = trunc nuw i64 %.154.i8 to i32
  store i32 %23, ptr %17, align 4, !tbaa !13
  %24 = getelementptr inbounds nuw i8, ptr %4, i64 28
  call void @llvm.memcpy.p0.p0.i64(ptr nonnull align 4 %24, ptr align 1 %.152.i9, i64 %.154.i8, i1 false)
  br label %SHA1_Update.exit

SHA1_Update.exit:                                 ; preds = %3, %18, %.thread
  %25 = icmp eq ptr %2, null
  %spec.store.select = select i1 %25, ptr @SHA1.buf, ptr %2
  %26 = call i32 @SHA1_Final(ptr noundef nonnull %spec.store.select, ptr noundef nonnull %4)
  call void @OPENSSL_cleanse(ptr noundef nonnull %4, i64 noundef 96) #6
  call void @llvm.lifetime.end.p0(i64 96, ptr nonnull %4) #6
  ret ptr %spec.store.select
}